target datalayout = "e-m:e-p270:32:32-p271:32:32-p272:64:64-i64:64-i128:128-f80:128-n8:16:32:64-S128"
target triple = "x86_64-pc-linux-gnu"

%struct.spawn_resp = type { i32, i32, ptr, i16, i32, ptr }
%struct.client_response = type { ptr }

@.str.44 = private unnamed_addr constant [3 x i8] c"%d\00", align 1
@.str.45 = private unnamed_addr constant [4 x i8] c",%d\00", align 1
@.str.47 = private unnamed_addr constant [32 x i8] c"cmd=spawn_result rc=%d jobid=%s\00", align 1
@.str.48 = private unnamed_addr constant [14 x i8] c" errcodes=%s\0A\00", align 1
@.str.49 = private unnamed_addr constant [2 x i8] c"\0A\00", align 1

; Function Attrs: nounwind uwtable
define internal i32 @_send_task_spawn_resp_pmi11(ptr noundef %0, i32 noundef %1, i32 noundef %2) #0 {
  %4 = alloca ptr, align 8
  %5 = alloca i32, align 4
  %6 = alloca i32, align 4
  %7 = alloca i32, align 4
  %8 = alloca i32, align 4
  %9 = alloca ptr, align 8
  %10 = alloca ptr, align 8
  store ptr %0, ptr %4, align 8
  store i32 %1, ptr %5, align 4
  store i32 %2, ptr %6, align 4
  call void @llvm.lifetime.start.p0(i64 4, ptr %7) #6
  call void @llvm.lifetime.start.p0(i64 4, ptr %8) #6
  call void @llvm.lifetime.start.p0(i64 8, ptr %9) #6
  call void @llvm.lifetime.start.p0(i64 8, ptr %10) #6
  store ptr null, ptr %10, align 8
  %11 = call ptr @client_resp_new()
  store ptr %11, ptr %9, align 8
  br label %12

12:                                               ; preds = %3
  %13 = load ptr, ptr %9, align 8
  %14 = getelementptr inbounds nuw %struct.client_response, ptr %13, i32 0, i32 0
  %15 = load ptr, ptr %4, align 8
  %16 = getelementptr inbounds nuw %struct.spawn_resp, ptr %15, i32 0, i32 1
  %17 = load i32, ptr %16, align 4
  %18 = load ptr, ptr %4, align 8
  %19 = getelementptr inbounds nuw %struct.spawn_resp, ptr %18, i32 0, i32 2
  %20 = load ptr, ptr %19, align 8
  call void (ptr, ptr, ...) @slurm_xstrfmtcat(ptr noundef %14, ptr noundef @.str.47, i32 noundef %17, ptr noundef %20)
  br label %21

21:                                               ; preds = %12
  br label %22

22:                                               ; preds = %21
  %23 = load ptr, ptr %4, align 8
  %24 = getelementptr inbounds nuw %struct.spawn_resp, ptr %23, i32 0, i32 1
  %25 = load i32, ptr %24, align 4
  %26 = icmp ne i32 %25, 0
  br i1 %26, label %27, label %31

27:                                               ; preds = %22
  %28 = load ptr, ptr %4, align 8
  %29 = getelementptr inbounds nuw %struct.spawn_resp, ptr %28, i32 0, i32 1
  %30 = load i32, ptr %29, align 4
  call void (ptr, ptr, ...) @slurm_xstrfmtcat(ptr noundef %10, ptr noundef @.str.44, i32 noundef %30)
  br label %31

31:                                               ; preds = %27, %22
  %32 = load ptr, ptr %4, align 8
  %33 = getelementptr inbounds nuw %struct.spawn_resp, ptr %32, i32 0, i32 4
  %34 = load i32, ptr %33, align 4
  %35 = icmp ugt i32 %34, 0
  br i1 %35, label %36, label %70

36:                                               ; preds = %31
  %37 = load ptr, ptr %10, align 8
  %38 = icmp ne ptr %37, null
  br i1 %38, label %39, label %45

39:                                               ; preds = %36
  %40 = load ptr, ptr %4, align 8
  %41 = getelementptr inbounds nuw %struct.spawn_resp, ptr %40, i32 0, i32 5
  %42 = load ptr, ptr %41, align 8
  %43 = getelementptr inbounds i32, ptr %42, i64 0
  %44 = load i32, ptr %43, align 4
  call void (ptr, ptr, ...) @slurm_xstrfmtcat(ptr noundef %10, ptr noundef @.str.45, i32 noundef %44)
  br label %51

45:                                               ; preds = %36
  %46 = load ptr, ptr %4, align 8
  %47 = getelementptr inbounds nuw %struct.spawn_resp, ptr %46, i32 0, i32 5
  %48 = load ptr, ptr %47, align 8
  %49 = getelementptr inbounds i32, ptr %48, i64 0
  %50 = load i32, ptr %49, align 4
  call void (ptr, ptr, ...) @slurm_xstrfmtcat(ptr noundef %10, ptr noundef @.str.44, i32 noundef %50)
  br label %51

51:                                               ; preds = %45, %39
  store i32 1, ptr %7, align 4
  br label %52

52:                                               ; preds = %66, %51
  %53 = load i32, ptr %7, align 4
  %54 = load ptr, ptr %4, align 8
  %55 = getelementptr inbounds nuw %struct.spawn_resp, ptr %54, i32 0, i32 4
  %56 = load i32, ptr %55, align 4
  %57 = icmp ult i32 %53, %56
  br i1 %57, label %58, label %69

58:                                               ; preds = %52
  %59 = load ptr, ptr %4, align 8
  %60 = getelementptr inbounds nuw %struct.spawn_resp, ptr %59, i32 0, i32 5
  %61 = load ptr, ptr %60, align 8
  %62 = load i32, ptr %7, align 4
  %63 = sext i32 %62 to i64
  %64 = getelementptr inbounds i32, ptr %61, i64 %63
  %65 = load i32, ptr %64, align 4
  call void (ptr, ptr, ...) @slurm_xstrfmtcat(ptr noundef %10, ptr noundef @.str.45, i32 noundef %65)
  br label %66

66:                                               ; preds = %58
  %67 = load i32, ptr %7, align 4
  %68 = add nsw i32 %67, 1
  store i32 %68, ptr %7, align 4
  br label %52, !llvm.loop !18

69:                                               ; preds = %52
  br label %70

70:                                               ; preds = %69, %31
  %71 = load ptr, ptr %10, align 8
  %72 = icmp ne ptr %71, null
  br i1 %72, label %73, label %80

73:                                               ; preds = %70
  br label %74

74:                                               ; preds = %73
  %75 = load ptr, ptr %9, align 8
  %76 = getelementptr inbounds nuw %struct.client_response, ptr %75, i32 0, i32 0
  %77 = load ptr, ptr %10, align 8
  call void (ptr, ptr, ...) @slurm_xstrfmtcat(ptr noundef %76, ptr noundef @.str.48, ptr noundef %77)
  br label %78

78:                                               ; preds = %74
  br label %79

79:                                               ; preds = %78
  call void @slurm_xfree(ptr noundef %10)
  br label %86

80:                                               ; preds = %70
  br label %81

81:                                               ; preds = %80
  %82 = load ptr, ptr %9, align 8
  %83 = getelementptr inbounds nuw %struct.client_response, ptr %82, i32 0, i32 0
  call void (ptr, ptr, ...) @slurm_xstrfmtcat(ptr noundef %83, ptr noundef @.str.49)
  br label %84

84:                                               ; preds = %81
  br label %85

85:                                               ; preds = %84
  br label %86

86:                                               ; preds = %85, %79
  %87 = load ptr, ptr %9, align 8
  %88 = load i32, ptr %5, align 4
  %89 = call i32 @client_resp_send(ptr noundef %87, i32 noundef %88)
  store i32 %89, ptr %8, align 4
  %90 = load ptr, ptr %9, align 8
  call void @client_resp_free(ptr noundef %90)
  %91 = load i32, ptr %8, align 4
  call void @llvm.lifetime.end.p0(i64 8, ptr %10) #6
  call void @llvm.lifetime.end.p0(i64 8, ptr %9) #6
  call void @llvm.lifetime.end.p0(i64 4, ptr %8) #6
  call void @llvm.lifetime.end.p0(i64 4, ptr %7) #6
  ret i32 %91
}