; Function Attrs: nounwind uwtable
define internal fastcc void @_send_task_spawn_resp_pmi11(ptr noundef readonly captures(none) %0, i32 noundef %1) unnamed_addr #0 {
  %3 = alloca ptr, align 8
  call void @llvm.lifetime.start.p0(i64 8, ptr nonnull %3) #7
  store ptr null, ptr %3, align 8
  %4 = tail call ptr @client_resp_new() #7
  %5 = getelementptr inbounds nuw i8, ptr %0, i64 4
  %6 = load i32, ptr %5, align 4
  %7 = getelementptr inbounds nuw i8, ptr %0, i64 8
  %8 = load ptr, ptr %7, align 8
  tail call void (ptr, ptr, ...) @slurm_xstrfmtcat(ptr noundef %4, ptr noundef nonnull @.str.47, i32 noundef %6, ptr noundef %8) #7
  %9 = load i32, ptr %5, align 4
  %.not = icmp eq i32 %9, 0
  br i1 %.not, label %11, label %10

10:                                               ; preds = %2
  call void (ptr, ptr, ...) @slurm_xstrfmtcat(ptr noundef nonnull %3, ptr noundef nonnull @.str.44, i32 noundef %9) #7
  br label %11

11:                                               ; preds = %10, %2
  %12 = getelementptr inbounds nuw i8, ptr %0, i64 20
  %13 = load i32, ptr %12, align 4
  %.not20 = icmp eq i32 %13, 0
  br i1 %.not20, label %.loopexit, label %14

14:                                               ; preds = %11
  %15 = load ptr, ptr %3, align 8
  %.not21 = icmp eq ptr %15, null
  %16 = getelementptr inbounds nuw i8, ptr %0, i64 24
  %17 = load ptr, ptr %16, align 8
  %18 = load i32, ptr %17, align 4
  %.str.44..str.45 = select i1 %.not21, ptr @.str.44, ptr @.str.45
  call void (ptr, ptr, ...) @slurm_xstrfmtcat(ptr noundef nonnull %3, ptr noundef nonnull %.str.44..str.45, i32 noundef %18) #7
  %19 = load i32, ptr %12, align 4
  %20 = icmp ugt i32 %19, 1
  br i1 %20, label %.lr.ph, label %.loopexit

.lr.ph:                                           ; preds = %14
  %21 = getelementptr inbounds nuw i8, ptr %0, i64 24
  br label %22

22:                                               ; preds = %.lr.ph, %22
  %indvars.iv = phi i64 [ 1, %.lr.ph ], [ %indvars.iv.next, %22 ]
  %23 = load ptr, ptr %21, align 8
  %24 = getelementptr inbounds nuw i32, ptr %23, i64 %indvars.iv
  %25 = load i32, ptr %24, align 4
  call void (ptr, ptr, ...) @slurm_xstrfmtcat(ptr noundef nonnull %3, ptr noundef nonnull @.str.45, i32 noundef %25) #7
  %indvars.iv.next = add nuw nsw i64 %indvars.iv, 1
  %26 = load i32, ptr %12, align 4
  %27 = zext i32 %26 to i64
  %28 = icmp samesign ult i64 %indvars.iv.next, %27
  br i1 %28, label %22, label %.loopexit, !llvm.loop !18

.loopexit:                                        ; preds = %22, %14, %11
  %29 = load ptr, ptr %3, align 8
  %.not22 = icmp eq ptr %29, null
  br i1 %.not22, label %31, label %30

30:                                               ; preds = %.loopexit
  call void (ptr, ptr, ...) @slurm_xstrfmtcat(ptr noundef %4, ptr noundef nonnull @.str.48, ptr noundef nonnull %29) #7
  call void @slurm_xfree(ptr noundef nonnull %3) #7
  br label %32

31:                                               ; preds = %.loopexit
  call void (ptr, ptr, ...) @slurm_xstrfmtcat(ptr noundef %4, ptr noundef nonnull @.str.49) #7
  br label %32

32:                                               ; preds = %31, %30
  %33 = call i32 @client_resp_send(ptr noundef %4, i32 noundef %1) #7
  call void @client_resp_free(ptr noundef %4) #7
  call void @llvm.lifetime.end.p0(i64 8, ptr nonnull %3) #7
  ret void
}